target datalayout = "e-m:e-p270:32:32-p271:32:32-p272:64:64-i64:64-i128:128-f80:128-n8:16:32:64-S128"
target triple = "x86_64-pc-linux-gnu"

%struct.hm_fragment_st = type { %struct.hm_header_st, ptr, ptr }
%struct.hm_header_st = type { i8, i32, i16, i32, i32, i32, i16 }
%struct.ssl_st = type { i32, i16, i16, ptr, ptr, ptr, ptr, ptr, i32, i32, ptr, ptr, i32, i32, ptr, ptr, ptr, ptr, ptr, ptr, ptr, ptr, i32, i32, [32 x i8], ptr, ptr, ptr, ptr, ptr, ptr, ptr, i64, %struct.crypto_ex_data_st, ptr, i32, i32, i32, i32, i16, ptr, i32, i64, ptr, ptr, ptr, ptr, ptr, ptr, i32, i32, ptr, ptr, i8, i8, i32 }
%struct.crypto_ex_data_st = type { ptr }
%struct.dtls1_state_st = type { i32, [256 x i8], i64, i16, i16, %struct.dtls1_bitmap_st, i16, i16, i16, [8 x i8], ptr, ptr, i32, %struct.hm_header_st, i32, %struct.timeval, i16 }
%struct.dtls1_bitmap_st = type { i64, i64 }
%struct.timeval = type { i64, i64 }

@.str = private unnamed_addr constant [117 x i8] c"generated/home/dtcxzyw/WorkSpace/Projects/compilers/llvm-opt-benchmark/bench/libquic/libquic/boringssl/ssl/d1_both.c\00", align 1

; Function Attrs: nounwind uwtable
define hidden void @dtls1_hm_fragment_free(ptr noundef %0) #0 {
  %2 = alloca ptr, align 8
  store ptr %0, ptr %2, align 8, !tbaa !6
  %3 = load ptr, ptr %2, align 8, !tbaa !6
  %4 = icmp eq ptr %3, null
  br i1 %4, label %5, label %6

5:                                                ; preds = %1
  br label %14

6:                                                ; preds = %1
  %7 = load ptr, ptr %2, align 8, !tbaa !6
  %8 = getelementptr inbounds nuw %struct.hm_fragment_st, ptr %7, i32 0, i32 1
  %9 = load ptr, ptr %8, align 8, !tbaa !11
  call void @free(ptr noundef %9) #8
  %10 = load ptr, ptr %2, align 8, !tbaa !6
  %11 = getelementptr inbounds nuw %struct.hm_fragment_st, ptr %10, i32 0, i32 2
  %12 = load ptr, ptr %11, align 8, !tbaa !17
  call void @free(ptr noundef %12) #8
  %13 = load ptr, ptr %2, align 8, !tbaa !6
  call void @free(ptr noundef %13) #8
  br label %14

14:                                               ; preds = %6, %5
  ret void
}

; Function Attrs: nounwind uwtable
define internal zeroext i16 @dtls1_get_queue_priority(i16 noundef zeroext %0, i32 noundef %1) #0 {
  %3 = alloca i16, align 2
  %4 = alloca i32, align 4
  store i16 %0, ptr %3, align 2, !tbaa !110
  store i32 %1, ptr %4, align 4, !tbaa !20
  %5 = load i16, ptr %3, align 2, !tbaa !110
  %6 = zext i16 %5 to i32
  %7 = mul nsw i32 %6, 2
  %8 = load i32, ptr %4, align 4, !tbaa !20
  %9 = sub nsw i32 %7, %8
  %10 = trunc i32 %9 to i16
  ret i16 %10
}

; Function Attrs: nounwind uwtable
define internal ptr @dtls1_hm_fragment_new(i64 noundef %0, i32 noundef %1) #0 {
  %3 = alloca ptr, align 8
  %4 = alloca i64, align 8
  %5 = alloca i32, align 4
  %6 = alloca ptr, align 8
  %7 = alloca i32, align 4
  %8 = alloca i64, align 8
  store i64 %0, ptr %4, align 8, !tbaa !53
  store i32 %1, ptr %5, align 4, !tbaa !20
  call void @llvm.lifetime.start.p0(i64 8, ptr %6) #8
  %9 = call noalias ptr @malloc(i64 noundef 48) #9
  store ptr %9, ptr %6, align 8, !tbaa !6
  %10 = load ptr, ptr %6, align 8, !tbaa !6
  %11 = icmp eq ptr %10, null
  br i1 %11, label %12, label %13

12:                                               ; preds = %2
  call void @ERR_put_error(i32 noundef 16, i32 noundef 0, i32 noundef 65, ptr noundef @.str, i32 noundef 149)
  store ptr null, ptr %3, align 8
  store i32 1, ptr %7, align 4
  br label %62

13:                                               ; preds = %2
  %14 = load ptr, ptr %6, align 8, !tbaa !6
  call void @llvm.memset.p0.i64(ptr align 8 %14, i8 0, i64 48, i1 false)
  %15 = load i64, ptr %4, align 8, !tbaa !53
  %16 = icmp ugt i64 %15, 0
  br i1 %16, label %17, label %58

17:                                               ; preds = %13
  %18 = load i64, ptr %4, align 8, !tbaa !53
  %19 = call noalias ptr @malloc(i64 noundef %18) #9
  %20 = load ptr, ptr %6, align 8, !tbaa !6
  %21 = getelementptr inbounds nuw %struct.hm_fragment_st, ptr %20, i32 0, i32 1
  store ptr %19, ptr %21, align 8, !tbaa !11
  %22 = load ptr, ptr %6, align 8, !tbaa !6
  %23 = getelementptr inbounds nuw %struct.hm_fragment_st, ptr %22, i32 0, i32 1
  %24 = load ptr, ptr %23, align 8, !tbaa !11
  %25 = icmp eq ptr %24, null
  br i1 %25, label %26, label %27

26:                                               ; preds = %17
  call void @ERR_put_error(i32 noundef 16, i32 noundef 0, i32 noundef 65, ptr noundef @.str, i32 noundef 159)
  br label %60

27:                                               ; preds = %17
  %28 = load i32, ptr %5, align 4, !tbaa !20
  %29 = icmp ne i32 %28, 0
  br i1 %29, label %30, label %57

30:                                               ; preds = %27
  %31 = load i64, ptr %4, align 8, !tbaa !53
  %32 = add i64 %31, 7
  %33 = load i64, ptr %4, align 8, !tbaa !53
  %34 = icmp ult i64 %32, %33
  br i1 %34, label %35, label %36

35:                                               ; preds = %30
  call void @ERR_put_error(i32 noundef 16, i32 noundef 0, i32 noundef 69, ptr noundef @.str, i32 noundef 166)
  br label %60

36:                                               ; preds = %30
  call void @llvm.lifetime.start.p0(i64 8, ptr %8) #8
  %37 = load i64, ptr %4, align 8, !tbaa !53
  %38 = add i64 %37, 7
  %39 = udiv i64 %38, 8
  store i64 %39, ptr %8, align 8, !tbaa !53
  %40 = load i64, ptr %8, align 8, !tbaa !53
  %41 = call noalias ptr @malloc(i64 noundef %40) #9
  %42 = load ptr, ptr %6, align 8, !tbaa !6
  %43 = getelementptr inbounds nuw %struct.hm_fragment_st, ptr %42, i32 0, i32 2
  store ptr %41, ptr %43, align 8, !tbaa !17
  %44 = load ptr, ptr %6, align 8, !tbaa !6
  %45 = getelementptr inbounds nuw %struct.hm_fragment_st, ptr %44, i32 0, i32 2
  %46 = load ptr, ptr %45, align 8, !tbaa !17
  %47 = icmp eq ptr %46, null
  br i1 %47, label %48, label %49

48:                                               ; preds = %36
  call void @ERR_put_error(i32 noundef 16, i32 noundef 0, i32 noundef 65, ptr noundef @.str, i32 noundef 172)
  store i32 2, ptr %7, align 4
  br label %54

49:                                               ; preds = %36
  %50 = load ptr, ptr %6, align 8, !tbaa !6
  %51 = getelementptr inbounds nuw %struct.hm_fragment_st, ptr %50, i32 0, i32 2
  %52 = load ptr, ptr %51, align 8, !tbaa !17
  %53 = load i64, ptr %8, align 8, !tbaa !53
  call void @llvm.memset.p0.i64(ptr align 1 %52, i8 0, i64 %53, i1 false)
  store i32 0, ptr %7, align 4
  br label %54

54:                                               ; preds = %48, %49
  call void @llvm.lifetime.end.p0(i64 8, ptr %8) #8
  %55 = load i32, ptr %7, align 4
  switch i32 %55, label %62 [
    i32 0, label %56
    i32 2, label %60
  ]

56:                                               ; preds = %54
  br label %57

57:                                               ; preds = %56, %27
  br label %58

58:                                               ; preds = %57, %13
  %59 = load ptr, ptr %6, align 8, !tbaa !6
  store ptr %59, ptr %3, align 8
  store i32 1, ptr %7, align 4
  br label %62

60:                                               ; preds = %54, %35, %26
  %61 = load ptr, ptr %6, align 8, !tbaa !6
  call void @dtls1_hm_fragment_free(ptr noundef %61)
  store ptr null, ptr %3, align 8
  store i32 1, ptr %7, align 4
  br label %62

62:                                               ; preds = %60, %58, %54, %12
  call void @llvm.lifetime.end.p0(i64 8, ptr %6) #8
  %63 = load ptr, ptr %3, align 8
  ret ptr %63
}

; Function Attrs: nounwind uwtable
define internal i32 @dtls1_buffer_change_cipher_spec(ptr noundef %0, i16 noundef zeroext %1) #0 {
  %3 = alloca i32, align 4
  %4 = alloca ptr, align 8
  %5 = alloca i16, align 2
  %6 = alloca ptr, align 8
  %7 = alloca i32, align 4
  %8 = alloca i16, align 2
  %9 = alloca [8 x i8], align 1
  %10 = alloca ptr, align 8
  store ptr %0, ptr %4, align 8, !tbaa !18
  store i16 %1, ptr %5, align 2, !tbaa !110
  call void @llvm.lifetime.start.p0(i64 8, ptr %6) #8
  %11 = call ptr @dtls1_hm_fragment_new(i64 noundef 0, i32 noundef 0)
  store ptr %11, ptr %6, align 8, !tbaa !6
  %12 = load ptr, ptr %6, align 8, !tbaa !6
  %13 = icmp eq ptr %12, null
  br i1 %13, label %14, label %15

14:                                               ; preds = %2
  store i32 0, ptr %3, align 4
  store i32 1, ptr %7, align 4
  br label %54

15:                                               ; preds = %2
  %16 = load ptr, ptr %6, align 8, !tbaa !6
  %17 = getelementptr inbounds nuw %struct.hm_fragment_st, ptr %16, i32 0, i32 0
  %18 = getelementptr inbounds nuw %struct.hm_header_st, ptr %17, i32 0, i32 5
  store i32 1, ptr %18, align 4, !tbaa !107
  %19 = load ptr, ptr %4, align 8, !tbaa !18
  %20 = getelementptr inbounds nuw %struct.ssl_st, ptr %19, i32 0, i32 15
  %21 = load ptr, ptr %20, align 8, !tbaa !21
  %22 = getelementptr inbounds nuw %struct.dtls1_state_st, ptr %21, i32 0, i32 4
  %23 = load i16, ptr %22, align 2, !tbaa !105
  %24 = load ptr, ptr %6, align 8, !tbaa !6
  %25 = getelementptr inbounds nuw %struct.hm_fragment_st, ptr %24, i32 0, i32 0
  %26 = getelementptr inbounds nuw %struct.hm_header_st, ptr %25, i32 0, i32 6
  store i16 %23, ptr %26, align 8, !tbaa !106
  call void @llvm.lifetime.start.p0(i64 2, ptr %8) #8
  %27 = load i16, ptr %5, align 2, !tbaa !110
  %28 = call zeroext i16 @dtls1_get_queue_priority(i16 noundef zeroext %27, i32 noundef 1)
  store i16 %28, ptr %8, align 2, !tbaa !110
  call void @llvm.lifetime.start.p0(i64 8, ptr %9) #8
  %29 = getelementptr inbounds [8 x i8], ptr %9, i64 0, i64 0
  call void @llvm.memset.p0.i64(ptr align 1 %29, i8 0, i64 8, i1 false)
  %30 = load i16, ptr %8, align 2, !tbaa !110
  %31 = zext i16 %30 to i32
  %32 = ashr i32 %31, 8
  %33 = trunc i32 %32 to i8
  %34 = getelementptr inbounds [8 x i8], ptr %9, i64 0, i64 6
  store i8 %33, ptr %34, align 1, !tbaa !111
  %35 = load i16, ptr %8, align 2, !tbaa !110
  %36 = trunc i16 %35 to i8
  %37 = getelementptr inbounds [8 x i8], ptr %9, i64 0, i64 7
  store i8 %36, ptr %37, align 1, !tbaa !111
  call void @llvm.lifetime.start.p0(i64 8, ptr %10) #8
  %38 = getelementptr inbounds [8 x i8], ptr %9, i64 0, i64 0
  %39 = load ptr, ptr %6, align 8, !tbaa !6
  %40 = call ptr @pitem_new(ptr noundef %38, ptr noundef %39)
  store ptr %40, ptr %10, align 8, !tbaa !67
  %41 = load ptr, ptr %10, align 8, !tbaa !67
  %42 = icmp eq ptr %41, null
  br i1 %42, label %43, label %45

43:                                               ; preds = %15
  %44 = load ptr, ptr %6, align 8, !tbaa !6
  call void @dtls1_hm_fragment_free(ptr noundef %44)
  store i32 0, ptr %3, align 4
  store i32 1, ptr %7, align 4
  br label %53

45:                                               ; preds = %15
  %46 = load ptr, ptr %4, align 8, !tbaa !18
  %47 = getelementptr inbounds nuw %struct.ssl_st, ptr %46, i32 0, i32 15
  %48 = load ptr, ptr %47, align 8, !tbaa !21
  %49 = getelementptr inbounds nuw %struct.dtls1_state_st, ptr %48, i32 0, i32 11
  %50 = load ptr, ptr %49, align 8, !tbaa !102
  %51 = load ptr, ptr %10, align 8, !tbaa !67
  %52 = call ptr @pqueue_insert(ptr noundef %50, ptr noundef %51)
  store i32 1, ptr %3, align 4
  store i32 1, ptr %7, align 4
  br label %53

53:                                               ; preds = %45, %43
  call void @llvm.lifetime.end.p0(i64 8, ptr %10) #8
  call void @llvm.lifetime.end.p0(i64 8, ptr %9) #8
  call void @llvm.lifetime.end.p0(i64 2, ptr %8) #8
  br label %54

54:                                               ; preds = %53, %14
  call void @llvm.lifetime.end.p0(i64 8, ptr %6) #8
  %55 = load i32, ptr %3, align 4
  ret i32 %55
}

; Function Attrs: nounwind uwtable
define hidden i32 @dtls1_send_change_cipher_spec(ptr noundef %0, i32 noundef %1, i32 noundef %2) #0 {
  %4 = alloca ptr, align 8
  %5 = alloca i32, align 4
  %6 = alloca i32, align 4
  store ptr %0, ptr %4, align 8, !tbaa !18
  store i32 %1, ptr %5, align 4, !tbaa !20
  store i32 %2, ptr %6, align 4, !tbaa !20
  %7 = load ptr, ptr %4, align 8, !tbaa !18
  %8 = getelementptr inbounds nuw %struct.ssl_st, ptr %7, i32 0, i32 9
  %9 = load i32, ptr %8, align 4, !tbaa !96
  %10 = load i32, ptr %5, align 4, !tbaa !20
  %11 = icmp eq i32 %9, %10
  br i1 %11, label %12, label %32

12:                                               ; preds = %3
  %13 = load ptr, ptr %4, align 8, !tbaa !18
  %14 = getelementptr inbounds nuw %struct.ssl_st, ptr %13, i32 0, i32 15
  %15 = load ptr, ptr %14, align 8, !tbaa !21
  %16 = getelementptr inbounds nuw %struct.dtls1_state_st, ptr %15, i32 0, i32 7
  %17 = load i16, ptr %16, align 2, !tbaa !112
  %18 = load ptr, ptr %4, align 8, !tbaa !18
  %19 = getelementptr inbounds nuw %struct.ssl_st, ptr %18, i32 0, i32 15
  %20 = load ptr, ptr %19, align 8, !tbaa !21
  %21 = getelementptr inbounds nuw %struct.dtls1_state_st, ptr %20, i32 0, i32 6
  store i16 %17, ptr %21, align 8, !tbaa !113
  %22 = load ptr, ptr %4, align 8, !tbaa !18
  %23 = load ptr, ptr %4, align 8, !tbaa !18
  %24 = getelementptr inbounds nuw %struct.ssl_st, ptr %23, i32 0, i32 15
  %25 = load ptr, ptr %24, align 8, !tbaa !21
  %26 = getelementptr inbounds nuw %struct.dtls1_state_st, ptr %25, i32 0, i32 6
  %27 = load i16, ptr %26, align 8, !tbaa !113
  %28 = call i32 @dtls1_buffer_change_cipher_spec(ptr noundef %22, i16 noundef zeroext %27)
  %29 = load i32, ptr %6, align 4, !tbaa !20
  %30 = load ptr, ptr %4, align 8, !tbaa !18
  %31 = getelementptr inbounds nuw %struct.ssl_st, ptr %30, i32 0, i32 9
  store i32 %29, ptr %31, align 4, !tbaa !96
  br label %32

32:                                               ; preds = %12, %3
  %33 = load ptr, ptr %4, align 8, !tbaa !18
  %34 = call i32 @dtls1_write_change_cipher_spec(ptr noundef %33, i32 noundef 1)
  ret i32 %34
}