; Function Attrs: nounwind uwtable
define hidden range(i32 -2147483648, 2) i32 @dtls1_send_change_cipher_spec(ptr noundef %0, i32 noundef %1, i32 noundef %2) local_unnamed_addr #2 {
  %4 = alloca [8 x i8], align 8
  %5 = getelementptr inbounds nuw i8, ptr %0, i64 52
  %6 = load i32, ptr %5, align 4, !tbaa !92
  %7 = icmp eq i32 %6, %1
  br i1 %7, label %8, label %38

8:                                                ; preds = %3
  %9 = getelementptr inbounds nuw i8, ptr %0, i64 88
  %10 = load ptr, ptr %9, align 8, !tbaa !16
  %11 = getelementptr inbounds nuw i8, ptr %10, i64 298
  %12 = load i16, ptr %11, align 2, !tbaa !106
  %13 = getelementptr inbounds nuw i8, ptr %10, i64 296
  store i16 %12, ptr %13, align 8, !tbaa !107
  %calloc27.i.i = tail call dereferenceable_or_null(48) ptr @calloc(i64 1, i64 48)
  %14 = icmp eq ptr %calloc27.i.i, null
  br i1 %14, label %dtls1_hm_fragment_new.exit.thread.i, label %dtls1_hm_fragment_new.exit.i

dtls1_hm_fragment_new.exit.thread.i:              ; preds = %8
  tail call void @ERR_put_error(i32 noundef 16, i32 noundef 0, i32 noundef 65, ptr noundef nonnull @.str, i32 noundef 149) #13
  br label %dtls1_buffer_change_cipher_spec.exit

dtls1_hm_fragment_new.exit.i:                     ; preds = %8
  %15 = getelementptr inbounds nuw i8, ptr %calloc27.i.i, i64 20
  store i32 1, ptr %15, align 4, !tbaa !97
  %16 = getelementptr inbounds nuw i8, ptr %10, i64 274
  %17 = load i16, ptr %16, align 2, !tbaa !95
  %18 = getelementptr inbounds nuw i8, ptr %calloc27.i.i, i64 24
  store i16 %17, ptr %18, align 8, !tbaa !96
  %19 = shl i16 %12, 1
  %20 = add i16 %19, -1
  call void @llvm.lifetime.start.p0(i64 8, ptr nonnull %4) #13
  store i64 0, ptr %4, align 8
  %21 = lshr i16 %20, 8
  %22 = trunc nuw i16 %21 to i8
  %23 = getelementptr inbounds nuw i8, ptr %4, i64 6
  store i8 %22, ptr %23, align 2, !tbaa !84
  %24 = trunc i16 %20 to i8
  %25 = getelementptr inbounds nuw i8, ptr %4, i64 7
  store i8 %24, ptr %25, align 1, !tbaa !84
  %26 = call ptr @pitem_new(ptr noundef nonnull %4, ptr noundef nonnull %calloc27.i.i) #13
  %27 = icmp eq ptr %26, null
  br i1 %27, label %dtls1_hm_fragment_free.exit.i, label %32

dtls1_hm_fragment_free.exit.i:                    ; preds = %dtls1_hm_fragment_new.exit.i
  %28 = getelementptr inbounds nuw i8, ptr %calloc27.i.i, i64 32
  %29 = load ptr, ptr %28, align 8, !tbaa !6
  call void @free(ptr noundef %29) #13
  %30 = getelementptr inbounds nuw i8, ptr %calloc27.i.i, i64 40
  %31 = load ptr, ptr %30, align 8, !tbaa !15
  call void @free(ptr noundef %31) #13
  call void @free(ptr noundef nonnull %calloc27.i.i) #13
  br label %37

32:                                               ; preds = %dtls1_hm_fragment_new.exit.i
  %33 = load ptr, ptr %9, align 8, !tbaa !16
  %34 = getelementptr inbounds nuw i8, ptr %33, i64 320
  %35 = load ptr, ptr %34, align 8, !tbaa !93
  %36 = call ptr @pqueue_insert(ptr noundef %35, ptr noundef nonnull %26) #13
  br label %37

37:                                               ; preds = %32, %dtls1_hm_fragment_free.exit.i
  call void @llvm.lifetime.end.p0(i64 8, ptr nonnull %4) #13
  br label %dtls1_buffer_change_cipher_spec.exit

dtls1_buffer_change_cipher_spec.exit:             ; preds = %dtls1_hm_fragment_new.exit.thread.i, %37
  store i32 %2, ptr %5, align 4, !tbaa !92
  br label %38

38:                                               ; preds = %dtls1_buffer_change_cipher_spec.exit, %3
  %39 = call fastcc i32 @dtls1_write_change_cipher_spec(ptr noundef nonnull %0, i32 noundef 1)
  ret i32 %39
}